(dp0
S'Lung Cancer'
p1
(dp2
S'A'
p3
(dp4
Vq1
p5
(dp6
g5
F0.8476612985697634
sVq3
p7
F0.15220515152894265
sVq2
p8
F0.00013354990129355292
ssg7
(dp9
g5
F0.6370040018822763
sg7
F0.29318201148066897
sg8
F0.06981398663705543
ssg8
(dp10
g5
F0.9999998384168963
sg7
F1.1487634870890764e-07
sg8
F4.6706754493616765e-08
sssS'pi'
p11
(dp12
g5
F1.3790942195803371e-35
sg7
F1.3658005472456219e-57
sg8
F1.0
ssS'B'
p13
(dp14
g5
(dp15
V11
p16
I0
sV10
p17
F0.01734251764982245
sV13
p18
F0.042244379066303066
sV12
p19
F0.046909424356050194
sV15
p20
F0.02936232720288909
sV14
p21
F0.10578225761589917
sV1
p22
F0.3145312887384185
sV0
p23
I0
sV3
p24
I0
sV2
p25
F0.04853058669359178
sV5
p26
F0.0115998375388707
sV4
p27
F0.1479163824567285
sV7
p28
F0.12050027952325876
sV6
p29
F0.056722460422619296
sV9
p30
F0.015444625936513363
sV8
p31
F0.0431136327990342
ssg7
(dp32
g16
I0
sg17
F0.009273074887493588
sg18
F0.0013579921773875776
sg19
F0.10564282968969854
sg20
F0.07496425985203388
sg21
F0.0729468496257628
sg22
F0.02982506320561197
sg23
I0
sg24
I0
sg25
F0.02609710017760228
sg26
F4.3997017765815416e-06
sg27
F0.03147032320611351
sg28
F0.015088329312737899
sg29
F0.0059650071195908785
sg30
F0.00010745484484571967
sg31
F0.6272573161993457
ssg8
(dp33
g16
I0
sg17
F1.2266212343404835e-33
sg18
F4.748480598522206e-06
sg19
F1.002117827238289e-05
sg20
F0.050014735510204855
sg21
F0.9484346550158401
sg22
F0.0008774974991454606
sg23
I0
sg24
I0
sg25
F5.17969526441557e-19
sg26
F8.103234641086859e-23
sg27
F1.0329277393740413e-09
sg28
F3.027215403841843e-08
sg29
F2.2564981594953027e-23
sg30
F1.381123553030657e-17
sg31
F0.0006583110108571052
ssssS'Breast Cancer'
p34
(dp35
g3
(dp36
Vq1
p37
(dp38
g37
F0.8762613445655766
sVq3
p39
F0.12373740552380236
sVq2
p40
F1.2499106225019126e-06
ssg39
(dp41
g37
F0.3116717800622124
sg39
F0.1334999753123104
sg40
F0.5548282446254763
ssg40
(dp42
g37
F0.4491580771432928
sg39
F0.2059841997129417
sg40
F0.3448577231437639
sssg11
(dp43
g37
F1.097010318431771e-65
sg39
F1.819105055290599e-102
sg40
F1.0
ssg13
(dp44
g37
(dp45
V11
p46
F0.2587893571117629
sV10
p47
F0.07687138039970706
sV13
p48
F0.05171411559175521
sV12
p49
F0.005971281625180037
sV15
p50
F0.0002634991786738852
sV14
p51
F0.010597043557374381
sV1
p52
F0.005669045552297811
sV0
p53
F0.1289159679422098
sV3
p54
F0.009109961638488318
sV2
p55
F0.181491241134007
sV5
p56
F3.531614000136978e-05
sV4
p57
F0.01895151324392982
sV7
p58
F0.07897632984343422
sV6
p59
F0.13648449521678338
sV9
p60
F0.023041036266269684
sV8
p61
F0.013118415558125955
ssg39
(dp62
g46
F0.01482259527905695
sg47
F0.09084617713664633
sg48
F2.650468215915654e-05
sg49
F0.03776304401553017
sg50
F0.12821331926401094
sg51
F0.0007834391321196797
sg52
F0.07445216086052618
sg53
F0.13250647837983165
sg54
F0.021337481207619614
sg55
F0.012832675857212315
sg56
F1.2892685837170903e-11
sg57
F0.00027015586863992876
sg58
F0.021480801730225443
sg59
F0.07602799102885723
sg60
F0.0006080253609266132
sg61
F0.3880291501837448
ssg40
(dp63
g46
F3.186676836386567e-05
sg47
F5.2045584664240325e-09
sg48
F0.0003513970161164949
sg49
F0.00120227846224806
sg50
F1.8569328142683448e-15
sg51
F0.19654420953959825
sg52
F0.060411965511922135
sg53
F6.761861073197521e-05
sg54
F1.1259162634759888e-09
sg55
F3.131433378187102e-10
sg56
F0.06610644044334904
sg57
F0.35919727332568857
sg58
F1.5507833920287217e-05
sg59
F1.3558451174515186e-06
sg60
F0.3160276985785391
sg61
F4.238142078401555e-05
ssssS'Colorectal Cancer'
p64
(dp65
g3
(dp66
Vq1
p67
(dp68
g67
F0.8437293621753361
sVq3
p69
F0.15625231512177912
sVq2
p70
F1.8322702884086314e-05
ssg69
(dp71
g67
F0.4612714016792416
sg69
F0.06945795024180862
sg70
F0.46927064807894897
ssg70
(dp72
g67
F0.9401466976967007
sg69
F0.059853274876978495
sg70
F2.7426320696174956e-08
sssg11
(dp73
g67
F1.542026948071945e-64
sg69
F7.031586526761442e-52
sg70
F1.0
ssg13
(dp74
g67
(dp75
V11
p76
F0.4757417419417364
sV10
p77
I0
sV13
p78
F0.04743802847598065
sV12
p79
F0.04310373349866773
sV15
p80
F0.002046999388281578
sV14
p81
F0.055947766448554474
sV1
p82
F0.05805191135888412
sV0
p83
F0.0002704134410585925
sV3
p84
F0.10785016955378467
sV2
p85
F0.035079098234863694
sV5
p86
I0
sV4
p87
F0.059928774402410324
sV7
p88
F0.04167054320689424
sV6
p89
F0.04960053133289959
sV9
p90
F0.022532538537149014
sV8
p91
F0.0007377501788346635
ssg69
(dp92
g76
F0.17687862374000018
sg77
I0
sg78
F0.021069875569978275
sg79
F0.03277728499314193
sg80
F0.05946453274059349
sg81
F0.10619616875845526
sg82
F9.376480870991706e-05
sg83
F0.06554079641466788
sg84
F0.11497981709412766
sg85
F0.1193515176954943
sg86
I0
sg87
F0.06251550549346054
sg88
F0.0008004807416714271
sg89
F0.008663420374946081
sg90
F0.03226370430959066
sg91
F0.19940450726516123
ssg70
(dp93
g76
F1.5016484818758166e-06
sg77
I0
sg78
F0.000184075390372802
sg79
F8.716943675258024e-06
sg80
F0.4918835797693062
sg81
F7.35310769821912e-10
sg82
F3.8253672945327166e-07
sg83
F3.072958789747571e-26
sg84
F1.4181834003247806e-06
sg85
F0.00012023036160679306
sg86
I0
sg87
F0.43217513643025085
sg88
F4.560049256859186e-11
sg89
F8.536788207727918e-07
sg90
F0.024890956339623675
sg91
F0.05073314793682087
ssssS'Prostate Cancer'
p94
(dp95
g3
(dp96
Vq1
p97
(dp98
g97
F0.8796688536636001
sVq3
p99
F0.11987114554155405
sVq2
p100
F0.0004600007948454128
ssg99
(dp101
g97
F0.4966154469612505
sg99
F0.21707028287778685
sg100
F0.2863142701609629
ssg100
(dp102
g97
F4.931498236389636e-13
sg99
F0.999999999999507
sg100
F9.720152168371454e-66
sssg11
(dp103
g97
F2.0459475274428917e-264
sg99
F0.0
sg100
F1.0
ssg13
(dp104
g97
(dp105
V11
p106
F0.06705419925778171
sV10
p107
F0.08812422507251473
sV13
p108
F0.033527099661260856
sV12
p109
F0.004338661805431206
sV15
p110
I0
sV14
p111
F0.057490309037323675
sV1
p112
F0.08940559910000628
sV0
p113
F0.3977083032867587
sV3
p114
F3.990403484238517e-09
sV2
p115
F3.541742030490871e-05
sV5
p116
F0.03352709960540643
sV4
p117
F0.10058129876336352
sV7
p118
F7.176792305923176e-14
sV6
p119
F0.022351399775122124
sV9
p120
F0.06115358382280954
sV8
p121
F0.04470279940144098
ssg99
(dp122
g106
F2.5931266083877264e-10
sg107
F0.004838912608873366
sg108
F7.415959220216941e-12
sg109
F0.19463229662636683
sg110
I0
sg111
F0.07831988327039437
sg112
F7.1765750642850255e-12
sg113
F0.39726461389411183
sg114
F0.12660993766499493
sg115
F0.19833435402163271
sg116
F2.1834165711547435e-10
sg117
F8.54626700051879e-10
sg118
F1.7103695264548044e-24
sg119
F1.3631730038535886e-12
sg120
F7.30269194676881e-13
sg121
F5.64659124544829e-10
ssg100
(dp123
g106
F8.878046306320507e-41
sg107
F3.2818508983340756e-21
sg108
F1.4552141792581558e-27
sg109
F3.9948349619382695e-31
sg110
I0
sg111
F4.912672422536944e-93
sg112
F2.941948325773114e-13
sg113
F7.018564640624589e-07
sg114
F1.367630880960791e-101
sg115
F0.03799638588339989
sg116
F8.143508867470906e-115
sg117
F9.776966136092692e-74
sg118
F0.6389510318953778
sg119
F3.9474323348134547e-119
sg120
F0.3230518803644639
sg121
F3.1506557676726813e-29
ssss.